; Function Attrs: mustprogress nounwind uwtable
define void @_ZN5faiss13fvecs2bitvecsEPKfPhmm(ptr noalias noundef %0, ptr noalias noundef %1, i64 noundef %2, i64 noundef %3) local_unnamed_addr #3 {
  %5 = alloca ptr, align 8
  %6 = alloca ptr, align 8
  %7 = alloca i64, align 8
  %8 = alloca i64, align 8
  %9 = alloca i64, align 8
  %10 = alloca i32, align 4
  %11 = tail call i32 @__kmpc_global_thread_num(ptr nonnull @2)
  store ptr %0, ptr %5, align 8, !tbaa !19
  store ptr %1, ptr %6, align 8, !tbaa !22
  store i64 %2, ptr %7, align 8, !tbaa !4
  store i64 %3, ptr %8, align 8, !tbaa !4
  call void @llvm.lifetime.start.p0(i64 8, ptr nonnull %9) #5
  %12 = add i64 %2, 7
  %13 = lshr i64 %12, 3
  store i64 %13, ptr %9, align 8, !tbaa !4
  %14 = icmp ugt i64 %3, 100000
  br i1 %14, label %15, label %16

15:                                               ; preds = %4
  call void (ptr, i32, ptr, ...) @__kmpc_fork_call(ptr nonnull @2, i32 5, ptr nonnull @_ZN5faiss13fvecs2bitvecsEPKfPhmm.omp_outlined, ptr nonnull %8, ptr nonnull %5, ptr nonnull %7, ptr nonnull %6, ptr nonnull %9)
  br label %17

16:                                               ; preds = %4
  tail call void @__kmpc_serialized_parallel(ptr nonnull @2, i32 %11)
  store i32 %11, ptr %10, align 4, !tbaa !10
  call void @_ZN5faiss13fvecs2bitvecsEPKfPhmm.omp_outlined(ptr nonnull %10, ptr nonnull poison, ptr %8, ptr %5, ptr %7, ptr %6, ptr %9) #5
  tail call void @__kmpc_end_serialized_parallel(ptr nonnull @2, i32 %11)
  br label %17

17:                                               ; preds = %16, %15
  call void @llvm.lifetime.end.p0(i64 8, ptr nonnull %9) #5
  ret void
}